; Function Attrs: mustprogress nounwind uwtable
define internal fastcc noundef ptr @"_ZZL16foldShiftedShiftPN4llvm14BinaryOperatorEjbRNS_9IRBuilderINS_12TargetFolderENS_25IRBuilderCallbackInserterEEEENK3$_0clEj"(ptr noundef nonnull readonly align 8 captures(none) dereferenceable(24) %0, i32 noundef %1) unnamed_addr #0 align 2 {
  %3 = load ptr, ptr %0, align 8
  %4 = load ptr, ptr %3, align 8
  %5 = getelementptr inbounds nuw i8, ptr %0, i64 8
  %6 = load ptr, ptr %5, align 8
  %7 = load ptr, ptr %6, align 8
  %8 = zext i32 %1 to i64
  %9 = tail call noundef ptr @_ZN4llvm11ConstantInt3getEPNS_4TypeEmb(ptr noundef %7, i64 noundef %8, i1 noundef zeroext false) #13
  %10 = getelementptr inbounds i8, ptr %4, i64 -32
  %11 = load ptr, ptr %10, align 8
  %.not.i.i.i = icmp eq ptr %11, null
  br i1 %.not.i.i.i, label %_ZN4llvm3Use14removeFromListEv.exit.i.i.i, label %12

12:                                               ; preds = %2
  %13 = getelementptr inbounds i8, ptr %4, i64 -24
  %14 = load ptr, ptr %13, align 8
  %15 = getelementptr inbounds i8, ptr %4, i64 -16
  %16 = load ptr, ptr %15, align 8
  store ptr %14, ptr %16, align 8
  %.not.i.i.i.i = icmp eq ptr %14, null
  br i1 %.not.i.i.i.i, label %_ZN4llvm3Use14removeFromListEv.exit.i.i.i, label %17

17:                                               ; preds = %12
  %18 = load ptr, ptr %15, align 8
  %19 = getelementptr inbounds nuw i8, ptr %14, i64 16
  store ptr %18, ptr %19, align 8
  br label %_ZN4llvm3Use14removeFromListEv.exit.i.i.i

_ZN4llvm3Use14removeFromListEv.exit.i.i.i:        ; preds = %17, %12, %2
  store ptr %9, ptr %10, align 8
  %.not4.i.i.i = icmp eq ptr %9, null
  br i1 %.not4.i.i.i, label %_ZN4llvm14BinaryOperator10setOperandEjPNS_5ValueE.exit, label %20

20:                                               ; preds = %_ZN4llvm3Use14removeFromListEv.exit.i.i.i
  %21 = getelementptr inbounds nuw i8, ptr %9, i64 16
  %22 = load ptr, ptr %21, align 8
  %23 = getelementptr inbounds i8, ptr %4, i64 -24
  store ptr %22, ptr %23, align 8
  %.not.i.i.i.i.i = icmp eq ptr %22, null
  br i1 %.not.i.i.i.i.i, label %_ZN4llvm5Value6addUseERNS_3UseE.exit.i.i.i, label %24

24:                                               ; preds = %20
  %25 = getelementptr inbounds nuw i8, ptr %22, i64 16
  store ptr %23, ptr %25, align 8
  br label %_ZN4llvm5Value6addUseERNS_3UseE.exit.i.i.i

_ZN4llvm5Value6addUseERNS_3UseE.exit.i.i.i:       ; preds = %24, %20
  %26 = getelementptr inbounds i8, ptr %4, i64 -16
  store ptr %21, ptr %26, align 8
  store ptr %10, ptr %21, align 8
  br label %_ZN4llvm14BinaryOperator10setOperandEjPNS_5ValueE.exit

_ZN4llvm14BinaryOperator10setOperandEjPNS_5ValueE.exit: ; preds = %_ZN4llvm3Use14removeFromListEv.exit.i.i.i, %_ZN4llvm5Value6addUseERNS_3UseE.exit.i.i.i
  %27 = getelementptr inbounds nuw i8, ptr %0, i64 16
  %28 = load ptr, ptr %27, align 8
  %29 = load i8, ptr %28, align 1
  %30 = trunc i8 %29 to i1
  %31 = load ptr, ptr %0, align 8
  %32 = load ptr, ptr %31, align 8
  br i1 %30, label %33, label %36

33:                                               ; preds = %_ZN4llvm14BinaryOperator10setOperandEjPNS_5ValueE.exit
  tail call void @_ZN4llvm11Instruction20setHasNoUnsignedWrapEb(ptr noundef nonnull align 8 dereferenceable(72) %32, i1 noundef zeroext false) #13
  %34 = load ptr, ptr %0, align 8
  %35 = load ptr, ptr %34, align 8
  tail call void @_ZN4llvm11Instruction18setHasNoSignedWrapEb(ptr noundef nonnull align 8 dereferenceable(72) %35, i1 noundef zeroext false) #13
  br label %37

36:                                               ; preds = %_ZN4llvm14BinaryOperator10setOperandEjPNS_5ValueE.exit
  tail call void @_ZN4llvm11Instruction10setIsExactEb(ptr noundef nonnull align 8 dereferenceable(72) %32, i1 noundef zeroext false) #13
  br label %37

37:                                               ; preds = %36, %33
  %38 = load ptr, ptr %0, align 8
  %39 = load ptr, ptr %38, align 8
  ret ptr %39
}